target datalayout = "e-m:e-p270:32:32-p271:32:32-p272:64:64-i64:64-i128:128-f80:128-n8:16:32:64-S128"
target triple = "x86_64-pc-linux-gnu"

%struct.b2WorldId = type { i16, i16 }
%struct.b2JointId = type { i32, i16, i16 }
%struct.b2BodyId = type { i32, i16, i16 }
%struct.b2Profile = type { float, float, float, float, float, float, float, float, float, float, float, float, float, float, float, float, float, float, float, float, float, float }
%class.Sample = type { ptr, ptr, ptr, ptr, i32, i32, %struct.b2BodyId, i32, %struct.b2WorldId, %struct.b2JointId, i32, i32, %struct.b2Profile, %struct.b2Profile }
%class.SampleTask = type { %"class.enki::ITaskSet.base", ptr, ptr }
%"class.enki::ITaskSet.base" = type <{ %"class.enki::ICompletable", i32, i32, i32 }>
%"class.enki::ICompletable" = type { ptr, i32, %"struct.std::atomic.0", %"struct.std::atomic.0", i32, %"struct.std::atomic.0", ptr }
%"struct.std::atomic.0" = type { %"struct.std::__atomic_base.1" }
%"struct.std::__atomic_base.1" = type { i32 }
%"class.enki::Dependency" = type { ptr, ptr, ptr }

; Function Attrs: inlinehint mustprogress nounwind uwtable
define linkonce_odr dso_local void @_ZN4enki12ICompletableD2Ev(ptr noundef nonnull align 8 dereferenceable(40) %0) unnamed_addr #3 comdat align 2 {
  %2 = alloca ptr, align 8
  %3 = alloca ptr, align 8
  %4 = alloca ptr, align 8
  store ptr %0, ptr %2, align 8, !tbaa !13
  %5 = load ptr, ptr %2, align 8
  store ptr getelementptr inbounds inrange(-16, 24) ({ [5 x ptr] }, ptr @_ZTVN4enki12ICompletableE, i32 0, i32 0, i32 2), ptr %5, align 8, !tbaa !19
  call void @llvm.lifetime.start.p0(i64 8, ptr %3) #19
  %6 = getelementptr inbounds nuw %"class.enki::ICompletable", ptr %5, i32 0, i32 6
  %7 = load ptr, ptr %6, align 8, !tbaa !231
  store ptr %7, ptr %3, align 8, !tbaa !232
  br label %8

8:                                                ; preds = %11, %1
  %9 = load ptr, ptr %3, align 8, !tbaa !232
  %10 = icmp ne ptr %9, null
  br i1 %10, label %11, label %20

11:                                               ; preds = %8
  call void @llvm.lifetime.start.p0(i64 8, ptr %4) #19
  %12 = load ptr, ptr %3, align 8, !tbaa !232
  %13 = getelementptr inbounds nuw %"class.enki::Dependency", ptr %12, i32 0, i32 2
  %14 = load ptr, ptr %13, align 8, !tbaa !233
  store ptr %14, ptr %4, align 8, !tbaa !232
  %15 = load ptr, ptr %3, align 8, !tbaa !232
  %16 = getelementptr inbounds nuw %"class.enki::Dependency", ptr %15, i32 0, i32 1
  store ptr null, ptr %16, align 8, !tbaa !235
  %17 = load ptr, ptr %3, align 8, !tbaa !232
  %18 = getelementptr inbounds nuw %"class.enki::Dependency", ptr %17, i32 0, i32 2
  store ptr null, ptr %18, align 8, !tbaa !233
  %19 = load ptr, ptr %4, align 8, !tbaa !232
  store ptr %19, ptr %3, align 8, !tbaa !232
  call void @llvm.lifetime.end.p0(i64 8, ptr %4) #19
  br label %8, !llvm.loop !236

20:                                               ; preds = %8
  call void @llvm.lifetime.end.p0(i64 8, ptr %3) #19
  ret void
}

; Function Attrs: mustprogress nounwind uwtable
define dso_local void @_ZN6SampleD2Ev(ptr noundef nonnull align 8 dereferenceable(248) %0) unnamed_addr #7 align 2 personality ptr @__gxx_personality_v0 {
  %2 = alloca ptr, align 8
  %3 = alloca %struct.b2WorldId, align 2
  store ptr %0, ptr %2, align 8, !tbaa !15
  %4 = load ptr, ptr %2, align 8
  store ptr getelementptr inbounds inrange(-16, 64) ({ [10 x ptr] }, ptr @_ZTV6Sample, i32 0, i32 0, i32 2), ptr %4, align 8, !tbaa !19
  %5 = getelementptr inbounds nuw %class.Sample, ptr %4, i32 0, i32 8
  call void @llvm.memcpy.p0.p0.i64(ptr align 2 %3, ptr align 4 %5, i64 4, i1 false), !tbaa.struct !36
  %6 = load i32, ptr %3, align 2
  invoke void @b2DestroyWorld(i32 %6)
          to label %7 unwind label %29

7:                                                ; preds = %1
  %8 = getelementptr inbounds nuw %class.Sample, ptr %4, i32 0, i32 2
  %9 = load ptr, ptr %8, align 8, !tbaa !21
  %10 = icmp eq ptr %9, null
  br i1 %10, label %12, label %11

11:                                               ; preds = %7
  call void @_ZN4enki13TaskSchedulerD1Ev(ptr noundef nonnull align 8 dereferenceable(220) %9) #19
  call void @_ZdlPvm(ptr noundef %9, i64 noundef 224) #20
  br label %12

12:                                               ; preds = %11, %7
  %13 = getelementptr inbounds nuw %class.Sample, ptr %4, i32 0, i32 3
  %14 = load ptr, ptr %13, align 8, !tbaa !33
  %15 = icmp eq ptr %14, null
  br i1 %15, label %28, label %16

16:                                               ; preds = %12
  %17 = getelementptr inbounds i8, ptr %14, i64 -8
  %18 = load i64, ptr %17, align 8
  %19 = getelementptr inbounds %class.SampleTask, ptr %14, i64 %18
  %20 = icmp eq ptr %14, %19
  br i1 %20, label %25, label %21

21:                                               ; preds = %21, %16
  %22 = phi ptr [ %19, %16 ], [ %23, %21 ]
  %23 = getelementptr inbounds %class.SampleTask, ptr %22, i64 -1
  call void @_ZN4enki12ICompletableD2Ev(ptr noundef nonnull align 8 dereferenceable(72) %23) #19
  %24 = icmp eq ptr %23, %14
  br i1 %24, label %25, label %21

25:                                               ; preds = %21, %16
  %26 = mul i64 72, %18
  %27 = add i64 %26, 8
  call void @_ZdaPvm(ptr noundef %17, i64 noundef %27) #20
  br label %28

28:                                               ; preds = %25, %12
  ret void

29:                                               ; preds = %1
  %30 = landingpad { ptr, i32 }
          catch ptr null
  %31 = extractvalue { ptr, i32 } %30, 0
  call void @__clang_call_terminate(ptr %31) #22
  unreachable
}