; Function Attrs: mustprogress nounwind uwtable
define dso_local void @_ZN6SampleD2Ev(ptr noundef nonnull align 8 captures(none) dereferenceable(248) initializes((0, 8)) %0) unnamed_addr #10 align 2 personality ptr @__gxx_personality_v0 {
  store ptr getelementptr inbounds nuw inrange(-16, 64) (i8, ptr @_ZTV6Sample, i64 16), ptr %0, align 8, !tbaa !19
  %2 = getelementptr inbounds nuw i8, ptr %0, i64 52
  %.sroa.0.0.copyload = load i32, ptr %2, align 4
  invoke void @b2DestroyWorld(i32 %.sroa.0.0.copyload)
          to label %3 unwind label %28

3:                                                ; preds = %1
  %4 = getelementptr inbounds nuw i8, ptr %0, i64 16
  %5 = load ptr, ptr %4, align 8, !tbaa !21
  %6 = icmp eq ptr %5, null
  br i1 %6, label %8, label %7

7:                                                ; preds = %3
  tail call void @_ZN4enki13TaskSchedulerD1Ev(ptr noundef nonnull align 8 dereferenceable(220) %5) #23
  tail call void @_ZdlPvm(ptr noundef nonnull %5, i64 noundef 224) #21
  br label %8

8:                                                ; preds = %7, %3
  %9 = getelementptr inbounds nuw i8, ptr %0, i64 24
  %10 = load ptr, ptr %9, align 8, !tbaa !39
  %11 = icmp eq ptr %10, null
  br i1 %11, label %27, label %12

12:                                               ; preds = %8
  %13 = getelementptr inbounds i8, ptr %10, i64 -8
  %14 = load i64, ptr %13, align 8
  %15 = icmp eq i64 %14, 0
  br i1 %15, label %.loopexit, label %.preheader.preheader

.preheader.preheader:                             ; preds = %12
  %16 = getelementptr inbounds %class.SampleTask, ptr %10, i64 %14
  br label %.preheader

.preheader:                                       ; preds = %.preheader.preheader, %_ZN4enki12ICompletableD2Ev.exit
  %17 = phi ptr [ %18, %_ZN4enki12ICompletableD2Ev.exit ], [ %16, %.preheader.preheader ]
  %18 = getelementptr inbounds i8, ptr %17, i64 -72
  store ptr getelementptr inbounds nuw inrange(-16, 24) (i8, ptr @_ZTVN4enki12ICompletableE, i64 16), ptr %18, align 8, !tbaa !19
  %19 = getelementptr inbounds i8, ptr %17, i64 -40
  %20 = load ptr, ptr %19, align 8, !tbaa !4
  %.not6.i = icmp eq ptr %20, null
  br i1 %.not6.i, label %_ZN4enki12ICompletableD2Ev.exit, label %.lr.ph.i

.lr.ph.i:                                         ; preds = %.preheader, %.lr.ph.i
  %.07.i = phi ptr [ %22, %.lr.ph.i ], [ %20, %.preheader ]
  %21 = getelementptr inbounds nuw i8, ptr %.07.i, i64 16
  %22 = load ptr, ptr %21, align 8, !tbaa !14
  %23 = getelementptr inbounds nuw i8, ptr %.07.i, i64 8
  %.not.i = icmp eq ptr %22, null
  tail call void @llvm.memset.p0.i64(ptr noundef nonnull align 8 dereferenceable(16) %23, i8 0, i64 16, i1 false)
  br i1 %.not.i, label %_ZN4enki12ICompletableD2Ev.exit, label %.lr.ph.i, !llvm.loop !17

_ZN4enki12ICompletableD2Ev.exit:                  ; preds = %.lr.ph.i, %.preheader
  %24 = icmp eq ptr %18, %10
  br i1 %24, label %.loopexit, label %.preheader

.loopexit:                                        ; preds = %_ZN4enki12ICompletableD2Ev.exit, %12
  %25 = mul i64 %14, 72
  %26 = add i64 %25, 8
  tail call void @_ZdaPvm(ptr noundef nonnull %13, i64 noundef %26) #21
  br label %27

27:                                               ; preds = %.loopexit, %8
  ret void

28:                                               ; preds = %1
  %29 = landingpad { ptr, i32 }
          catch ptr null
  %30 = extractvalue { ptr, i32 } %29, 0
  tail call void @__clang_call_terminate(ptr %30) #24
  unreachable
}